; Function Attrs: mustprogress uwtable
define hidden void @_ZN4cvc58internal6theory25InferenceIdProofAnnotatorC2EPNS0_16ProofNodeManagerEPNS_7context7ContextE(ptr noundef nonnull align 8 dereferenceable(208) %this, ptr noundef %pnm, ptr noundef %c) unnamed_addr #3 align 2 personality ptr @__gxx_personality_v0 {
entry:
  store ptr getelementptr inbounds ({ [5 x ptr] }, ptr @_ZTVN4cvc58internal6theory25InferenceIdProofAnnotatorE, i64 0, i32 0, i64 2), ptr %this, align 8
  %d_pnm = getelementptr inbounds i8, ptr %this, i64 8
  store ptr %pnm, ptr %d_pnm, align 8
  %d_ids = getelementptr inbounds i8, ptr %this, i64 16
  tail call void @_ZN4cvc57context10ContextObjC2EPNS0_7ContextE(ptr noundef nonnull align 8 dereferenceable(40) %d_ids, ptr noundef %c)
  store ptr getelementptr inbounds ({ [6 x ptr] }, ptr @_ZTVN4cvc57context9CDHashMapINS_8internal12NodeTemplateILb1EEENS2_6theory11InferenceIdESt4hashIS4_EEE, i64 0, i32 0, i64 2), ptr %d_ids, align 8
  %d_map.i = getelementptr inbounds i8, ptr %this, i64 56
  %0 = getelementptr inbounds i8, ptr %this, i64 88
  store i64 0, ptr %0, align 8
  %_M_single_bucket.i.i.i = getelementptr inbounds i8, ptr %this, i64 104
  store ptr %_M_single_bucket.i.i.i, ptr %d_map.i, align 8
  %_M_bucket_count.i.i.i = getelementptr inbounds i8, ptr %this, i64 64
  store i64 1, ptr %_M_bucket_count.i.i.i, align 8
  %_M_before_begin.i.i.i = getelementptr inbounds i8, ptr %this, i64 72
  tail call void @llvm.memset.p0.i64(ptr noundef nonnull align 8 dereferenceable(16) %_M_before_begin.i.i.i, i8 0, i64 16, i1 false)
  store float 1.000000e+00, ptr %0, align 8
  %_M_next_resize.i.i.i.i = getelementptr inbounds i8, ptr %this, i64 96
  %d_context.i = getelementptr inbounds i8, ptr %this, i64 120
  tail call void @llvm.memset.p0.i64(ptr noundef nonnull align 8 dereferenceable(24) %_M_next_resize.i.i.i.i, i8 0, i64 24, i1 false)
  store ptr %c, ptr %d_context.i, align 8
  %d_list = getelementptr inbounds i8, ptr %this, i64 128
  invoke void @_ZN4cvc57context10ContextObjC2EPNS0_7ContextE(ptr noundef nonnull align 8 dereferenceable(40) %d_list, ptr noundef %c)
          to label %invoke.cont3 unwind label %lpad2

invoke.cont3:                                     ; preds = %entry
  store ptr getelementptr inbounds ({ [6 x ptr] }, ptr @_ZTVN4cvc57context6CDListISt10shared_ptrINS_8internal9ProofNodeEENS0_14DefaultCleanUpIS5_EESaIS5_EEE, i64 0, i32 0, i64 2), ptr %d_list, align 8
  %d_list.i = getelementptr inbounds i8, ptr %this, i64 168
  %d_callCleanup.i = getelementptr inbounds i8, ptr %this, i64 200
  tail call void @llvm.memset.p0.i64(ptr noundef nonnull align 8 dereferenceable(32) %d_list.i, i8 0, i64 32, i1 false)
  store i8 1, ptr %d_callCleanup.i, align 8
  ret void

lpad2:                                            ; preds = %entry
  %1 = landingpad { ptr, i32 }
          cleanup
  tail call void @_ZN4cvc57context9CDHashMapINS_8internal12NodeTemplateILb1EEENS2_6theory11InferenceIdESt4hashIS4_EED2Ev(ptr noundef nonnull align 8 dereferenceable(112) %d_ids) #16
  resume { ptr, i32 } %1
}